target datalayout = "e-m:e-p270:32:32-p271:32:32-p272:64:64-i64:64-i128:128-f80:128-n8:16:32:64-S128"
target triple = "x86_64-pc-linux-gnu"

; Function Attrs: nounwind uwtable
define dso_local i64 @bit_nffc(ptr noundef %0, i32 noundef %1) #0 {
  %3 = alloca ptr, align 8
  %4 = alloca i32, align 4
  %5 = alloca i64, align 8
  %6 = alloca i64, align 8
  %7 = alloca i32, align 4
  store ptr %0, ptr %3, align 8
  store i32 %1, ptr %4, align 4
  call void @llvm.lifetime.start.p0(i64 8, ptr %5) #12
  store i64 -1, ptr %5, align 8
  call void @llvm.lifetime.start.p0(i64 8, ptr %6) #12
  call void @llvm.lifetime.start.p0(i64 4, ptr %7) #12
  store i32 0, ptr %7, align 4
  br label %8

8:                                                ; preds = %2
  br label %9

9:                                                ; preds = %8
  br label %10

10:                                               ; preds = %9
  store i64 0, ptr %6, align 8
  br label %11

11:                                               ; preds = %46, %10
  %12 = load i64, ptr %6, align 8
  %13 = load ptr, ptr %3, align 8
  %14 = getelementptr inbounds i64, ptr %13, i64 1
  %15 = load i64, ptr %14, align 8
  %16 = icmp slt i64 %12, %15
  br i1 %16, label %17, label %49

17:                                               ; preds = %11
  %18 = load ptr, ptr %3, align 8
  %19 = load i64, ptr %6, align 8
  %20 = ashr i64 %19, 6
  %21 = add nsw i64 %20, 2
  %22 = getelementptr inbounds i64, ptr %18, i64 %21
  %23 = load i64, ptr %22, align 8
  %24 = load i64, ptr %6, align 8
  %25 = and i64 %24, 63
  %26 = shl i64 1, %25
  %27 = and i64 %23, %26
  %28 = icmp ne i64 %27, 0
  br i1 %28, label %29, label %30

29:                                               ; preds = %17
  br i1 true, label %31, label %32

30:                                               ; preds = %17
  br i1 false, label %31, label %32

31:                                               ; preds = %30, %29
  store i32 0, ptr %7, align 4
  br label %45

32:                                               ; preds = %30, %29
  %33 = load i32, ptr %7, align 4
  %34 = add nsw i32 %33, 1
  store i32 %34, ptr %7, align 4
  %35 = load i32, ptr %7, align 4
  %36 = load i32, ptr %4, align 4
  %37 = icmp sge i32 %35, %36
  br i1 %37, label %38, label %44

38:                                               ; preds = %32
  %39 = load i64, ptr %6, align 8
  %40 = load i32, ptr %7, align 4
  %41 = sub nsw i32 %40, 1
  %42 = sext i32 %41 to i64
  %43 = sub nsw i64 %39, %42
  store i64 %43, ptr %5, align 8
  br label %49

44:                                               ; preds = %32
  br label %45

45:                                               ; preds = %44, %31
  br label %46

46:                                               ; preds = %45
  %47 = load i64, ptr %6, align 8
  %48 = add nsw i64 %47, 1
  store i64 %48, ptr %6, align 8
  br label %11, !llvm.loop !37

49:                                               ; preds = %38, %11
  %50 = load i64, ptr %5, align 8
  call void @llvm.lifetime.end.p0(i64 4, ptr %7) #12
  call void @llvm.lifetime.end.p0(i64 8, ptr %6) #12
  call void @llvm.lifetime.end.p0(i64 8, ptr %5) #12
  ret i64 %50
}