; Function Attrs: nofree norecurse nosync nounwind memory(argmem: read) uwtable
define dso_local i64 @bit_nffc(ptr noundef readonly captures(none) %0, i32 noundef %1) #3 {
  %3 = getelementptr inbounds nuw i8, ptr %0, i64 8
  %4 = load i64, ptr %3, align 8
  %invariant.gep = getelementptr inbounds nuw i8, ptr %0, i64 16
  %5 = icmp sgt i64 %4, 0
  br i1 %5, label %.lr.ph, label %.loopexit

.lr.ph:                                           ; preds = %2, %16
  %.018 = phi i32 [ %.1, %16 ], [ 0, %2 ]
  %.01117 = phi i64 [ %17, %16 ], [ 0, %2 ]
  %6 = lshr i64 %.01117, 6
  %gep = getelementptr inbounds nuw i64, ptr %invariant.gep, i64 %6
  %7 = load i64, ptr %gep, align 8
  %8 = and i64 %.01117, 63
  %9 = shl nuw i64 1, %8
  %10 = and i64 %7, %9
  %.not = icmp eq i64 %10, 0
  br i1 %.not, label %11, label %16

11:                                               ; preds = %.lr.ph
  %12 = add nsw i32 %.018, 1
  %.not14 = icmp slt i32 %12, %1
  br i1 %.not14, label %16, label %13

13:                                               ; preds = %11
  %14 = sext i32 %.018 to i64
  %15 = sub nsw i64 %.01117, %14
  br label %.loopexit

16:                                               ; preds = %.lr.ph, %11
  %.1 = phi i32 [ %12, %11 ], [ 0, %.lr.ph ]
  %17 = add nuw nsw i64 %.01117, 1
  %exitcond.not = icmp eq i64 %17, %4
  br i1 %exitcond.not, label %.loopexit, label %.lr.ph, !llvm.loop !39

.loopexit:                                        ; preds = %16, %2, %13
  %.012 = phi i64 [ %15, %13 ], [ -1, %2 ], [ -1, %16 ]
  ret i64 %.012
}